target datalayout = "e-m:e-p270:32:32-p271:32:32-p272:64:64-i64:64-i128:128-f80:128-n8:16:32:64-S128"
target triple = "x86_64-pc-linux-gnu"

%struct.SDL_GPUDevice = type { ptr, ptr, ptr, ptr, ptr, ptr, ptr, ptr, ptr, ptr, ptr, ptr, ptr, ptr, ptr, ptr, ptr, ptr, ptr, ptr, ptr, ptr, ptr, ptr, ptr, ptr, ptr, ptr, ptr, ptr, ptr, ptr, ptr, ptr, ptr, ptr, ptr, ptr, ptr, ptr, ptr, ptr, ptr, ptr, ptr, ptr, ptr, ptr, ptr, ptr, ptr, ptr, ptr, ptr, ptr, ptr, ptr, ptr, ptr, ptr, ptr, ptr, ptr, ptr, ptr, ptr, ptr, ptr, ptr, ptr, ptr, ptr, ptr, ptr, ptr, ptr, ptr, ptr, ptr, ptr, ptr, ptr, ptr, ptr, ptr, i32, i8 }
%struct.CommandBufferCommonHeader = type { ptr, %struct.RenderPass, i8, %struct.Pass, i8, %struct.Pass, i8, i8, i8 }
%struct.RenderPass = type { ptr, i8, [4 x ptr], i32, ptr }
%struct.Pass = type { ptr, i8 }

@.str.4 = private unnamed_addr constant [26 x i8] c"Parameter '%s' is invalid\00", align 1
@.str.8 = private unnamed_addr constant [103 x i8] c"generated/home/dtcxzyw/WorkSpace/Projects/compilers/llvm-opt-benchmark/bench/sdl/SDL/src/gpu/SDL_gpu.c\00", align 1
@.str.225 = private unnamed_addr constant [12 x i8] c"render_pass\00", align 1
@SDL_DrawGPUIndexedPrimitives_REAL.sdl_assert_data = internal global { i8, [3 x i8], i32, ptr, ptr, i32, [4 x i8], ptr, ptr } { i8 0, [3 x i8] zeroinitializer, i32 0, ptr @.str.229, ptr null, i32 0, [4 x i8] zeroinitializer, ptr null, ptr null }, align 8
@__func__.SDL_DrawGPUIndexedPrimitives_REAL = private unnamed_addr constant [34 x i8] c"SDL_DrawGPUIndexedPrimitives_REAL\00", align 1
@SDL_DrawGPUIndexedPrimitives_REAL.sdl_assert_data.253 = internal global { i8, [3 x i8], i32, ptr, ptr, i32, [4 x i8], ptr, ptr } { i8 0, [3 x i8] zeroinitializer, i32 0, ptr @.str.254, ptr null, i32 0, [4 x i8] zeroinitializer, ptr null, ptr null }, align 8

; Function Attrs: nounwind uwtable
define hidden void @SDL_DrawGPUIndexedPrimitives_REAL(ptr noundef %0, i32 noundef %1, i32 noundef %2, i32 noundef %3, i32 noundef %4, i32 noundef %5) #0 {
  %7 = alloca ptr, align 8
  %8 = alloca i32, align 4
  %9 = alloca i32, align 4
  %10 = alloca i32, align 4
  %11 = alloca i32, align 4
  %12 = alloca i32, align 4
  %13 = alloca i32, align 4
  %14 = alloca i32, align 4
  %15 = alloca i32, align 4
  store ptr %0, ptr %7, align 8
  store i32 %1, ptr %8, align 4
  store i32 %2, ptr %9, align 4
  store i32 %3, ptr %10, align 4
  store i32 %4, ptr %11, align 4
  store i32 %5, ptr %12, align 4
  %16 = load ptr, ptr %7, align 8
  %17 = icmp eq ptr %16, null
  br i1 %17, label %18, label %20

18:                                               ; preds = %6
  %19 = call zeroext i1 (ptr, ...) @SDL_SetError_REAL(ptr noundef @.str.4, ptr noundef @.str.225)
  br label %92

20:                                               ; preds = %6
  %21 = load ptr, ptr %7, align 8
  %22 = getelementptr inbounds nuw %struct.RenderPass, ptr %21, i32 0, i32 0
  %23 = load ptr, ptr %22, align 8
  %24 = getelementptr inbounds nuw %struct.CommandBufferCommonHeader, ptr %23, i32 0, i32 0
  %25 = load ptr, ptr %24, align 8
  %26 = getelementptr inbounds nuw %struct.SDL_GPUDevice, ptr %25, i32 0, i32 86
  %27 = load i8, ptr %26, align 4, !range !5, !noundef !6
  %28 = trunc i8 %27 to i1
  br i1 %28, label %29, label %76

29:                                               ; preds = %20
  %30 = load ptr, ptr %7, align 8
  %31 = getelementptr inbounds nuw %struct.RenderPass, ptr %30, i32 0, i32 1
  %32 = load i8, ptr %31, align 8, !range !5, !noundef !6
  %33 = trunc i8 %32 to i1
  br i1 %33, label %51, label %34

34:                                               ; preds = %29
  br label %35

35:                                               ; preds = %34
  br label %36

36:                                               ; preds = %35, %47
  call void @llvm.lifetime.start.p0(i64 4, ptr %13) #6
  %37 = call i32 @SDL_ReportAssertion_REAL(ptr noundef @SDL_DrawGPUIndexedPrimitives_REAL.sdl_assert_data, ptr noundef @__func__.SDL_DrawGPUIndexedPrimitives_REAL, ptr noundef @.str.8, i32 noundef 2030)
  store i32 %37, ptr %13, align 4
  %38 = load i32, ptr %13, align 4
  %39 = icmp eq i32 %38, 0
  br i1 %39, label %40, label %41

40:                                               ; preds = %36
  store i32 4, ptr %14, align 4
  br label %47

41:                                               ; preds = %36
  %42 = load i32, ptr %13, align 4
  %43 = icmp eq i32 %42, 1
  br i1 %43, label %44, label %45

44:                                               ; preds = %41
  call void @llvm.debugtrap()
  br label %45

45:                                               ; preds = %44, %41
  br label %46

46:                                               ; preds = %45
  store i32 5, ptr %14, align 4
  br label %47

47:                                               ; preds = %46, %40
  call void @llvm.lifetime.end.p0(i64 4, ptr %13) #6
  %48 = load i32, ptr %14, align 4
  switch i32 %48, label %93 [
    i32 4, label %36
    i32 5, label %49
  ]

49:                                               ; preds = %47
  br label %50

50:                                               ; preds = %49
  br label %92

51:                                               ; preds = %29
  %52 = load ptr, ptr %7, align 8
  %53 = getelementptr inbounds nuw %struct.RenderPass, ptr %52, i32 0, i32 0
  %54 = load ptr, ptr %53, align 8
  %55 = getelementptr inbounds nuw %struct.CommandBufferCommonHeader, ptr %54, i32 0, i32 2
  %56 = load i8, ptr %55, align 8, !range !5, !noundef !6
  %57 = trunc i8 %56 to i1
  br i1 %57, label %75, label %58

58:                                               ; preds = %51
  br label %59

59:                                               ; preds = %58
  br label %60

60:                                               ; preds = %59, %71
  call void @llvm.lifetime.start.p0(i64 4, ptr %15) #6
  %61 = call i32 @SDL_ReportAssertion_REAL(ptr noundef @SDL_DrawGPUIndexedPrimitives_REAL.sdl_assert_data.253, ptr noundef @__func__.SDL_DrawGPUIndexedPrimitives_REAL, ptr noundef @.str.8, i32 noundef 2031)
  store i32 %61, ptr %15, align 4
  %62 = load i32, ptr %15, align 4
  %63 = icmp eq i32 %62, 0
  br i1 %63, label %64, label %65

64:                                               ; preds = %60
  store i32 8, ptr %14, align 4
  br label %71

65:                                               ; preds = %60
  %66 = load i32, ptr %15, align 4
  %67 = icmp eq i32 %66, 1
  br i1 %67, label %68, label %69

68:                                               ; preds = %65
  call void @llvm.debugtrap()
  br label %69

69:                                               ; preds = %68, %65
  br label %70

70:                                               ; preds = %69
  store i32 9, ptr %14, align 4
  br label %71

71:                                               ; preds = %70, %64
  call void @llvm.lifetime.end.p0(i64 4, ptr %15) #6
  %72 = load i32, ptr %14, align 4
  switch i32 %72, label %93 [
    i32 8, label %60
    i32 9, label %73
  ]

73:                                               ; preds = %71
  br label %74

74:                                               ; preds = %73
  br label %92

75:                                               ; preds = %51
  br label %76

76:                                               ; preds = %75, %20
  %77 = load ptr, ptr %7, align 8
  %78 = getelementptr inbounds nuw %struct.RenderPass, ptr %77, i32 0, i32 0
  %79 = load ptr, ptr %78, align 8
  %80 = getelementptr inbounds nuw %struct.CommandBufferCommonHeader, ptr %79, i32 0, i32 0
  %81 = load ptr, ptr %80, align 8
  %82 = getelementptr inbounds nuw %struct.SDL_GPUDevice, ptr %81, i32 0, i32 37
  %83 = load ptr, ptr %82, align 8
  %84 = load ptr, ptr %7, align 8
  %85 = getelementptr inbounds nuw %struct.RenderPass, ptr %84, i32 0, i32 0
  %86 = load ptr, ptr %85, align 8
  %87 = load i32, ptr %8, align 4
  %88 = load i32, ptr %9, align 4
  %89 = load i32, ptr %10, align 4
  %90 = load i32, ptr %11, align 4
  %91 = load i32, ptr %12, align 4
  call void %83(ptr noundef %86, i32 noundef %87, i32 noundef %88, i32 noundef %89, i32 noundef %90, i32 noundef %91)
  br label %92

92:                                               ; preds = %76, %74, %50, %18
  ret void

93:                                               ; preds = %71, %47
  unreachable
}