; Function Attrs: nounwind uwtable
define hidden void @SDL_DrawGPUIndexedPrimitives_REAL(ptr noundef readonly captures(address_is_null) %0, i32 noundef %1, i32 noundef %2, i32 noundef %3, i32 noundef %4, i32 noundef %5) local_unnamed_addr #0 {
  %7 = icmp eq ptr %0, null
  br i1 %7, label %8, label %10

8:                                                ; preds = %6
  %9 = tail call zeroext i1 (ptr, ...) @SDL_SetError_REAL(ptr noundef nonnull @.str.4, ptr noundef nonnull @.str.225) #7
  br label %.thread

10:                                               ; preds = %6
  %11 = load ptr, ptr %0, align 8
  %12 = load ptr, ptr %11, align 8
  %13 = getelementptr inbounds nuw i8, ptr %12, i64 684
  %14 = load i8, ptr %13, align 4, !range !5, !noundef !6
  %15 = trunc nuw i8 %14 to i1
  br i1 %15, label %16, label %28

16:                                               ; preds = %10
  %17 = getelementptr inbounds nuw i8, ptr %0, i64 8
  %18 = load i8, ptr %17, align 8, !range !5, !noundef !6
  %19 = trunc nuw i8 %18 to i1
  br i1 %19, label %22, label %.preheader28

.preheader28:                                     ; preds = %16, %.preheader28
  %20 = tail call i32 @SDL_ReportAssertion_REAL(ptr noundef nonnull @SDL_DrawGPUIndexedPrimitives_REAL.sdl_assert_data, ptr noundef nonnull @__func__.SDL_DrawGPUIndexedPrimitives_REAL, ptr noundef nonnull @.str.8, i32 noundef 2030) #7
  switch i32 %20, label %.thread [
    i32 0, label %.preheader28
    i32 1, label %21
  ]

21:                                               ; preds = %.preheader28
  tail call void @llvm.debugtrap()
  br label %.thread

22:                                               ; preds = %16
  %23 = getelementptr inbounds nuw i8, ptr %11, i64 72
  %24 = load i8, ptr %23, align 8, !range !5, !noundef !6
  %25 = trunc nuw i8 %24 to i1
  br i1 %25, label %28, label %.preheader

.preheader:                                       ; preds = %22, %.preheader
  %26 = tail call i32 @SDL_ReportAssertion_REAL(ptr noundef nonnull @SDL_DrawGPUIndexedPrimitives_REAL.sdl_assert_data.253, ptr noundef nonnull @__func__.SDL_DrawGPUIndexedPrimitives_REAL, ptr noundef nonnull @.str.8, i32 noundef 2031) #7
  switch i32 %26, label %.thread [
    i32 0, label %.preheader
    i32 1, label %27
  ]

27:                                               ; preds = %.preheader
  tail call void @llvm.debugtrap()
  br label %.thread

28:                                               ; preds = %22, %10
  %29 = getelementptr inbounds nuw i8, ptr %12, i64 296
  %30 = load ptr, ptr %29, align 8
  tail call void %30(ptr noundef nonnull %11, i32 noundef %1, i32 noundef %2, i32 noundef %3, i32 noundef %4, i32 noundef %5) #7
  br label %.thread

.thread:                                          ; preds = %.preheader28, %.preheader, %27, %21, %28, %8
  ret void
}